Certificate:
    Data:
        Version: 3 (0x2)
        Serial Number:
            38:ea:c4:71:70:d7:03:24:cf:30:56:59:60:2e:b6:bc:92:7b:4e:81
        Signature Algorithm: sha256WithRSAEncryption
        Issuer: C=US, ST=Massachusetts, L=Bedford, O=Personal, OU=Personal, emailAddress=example@example.com, CN=localhost
        Validity
            Not Before: Apr 24 13:18:54 2025 GMT
            Not After : Apr 22 13:18:54 2035 GMT
        Subject: C=US, ST=Massachusetts, L=Bedford, O=Personal, OU=Personal, emailAddress=example@example.com, CN=localhost
        Subject Public Key Info:
            Public Key Algorithm: rsaEncryption
                Public-Key: (2048 bit)
                Modulus:
                    00:98:82:fb:d2:71:94:6d:e6:90:45:04:b1:be:09:
                    11:64:5f:66:b0:e5:b3:09:a9:4a:46:5c:2c:5d:0a:
                    3f:65:69:c4:b9:1f:4c:1a:ce:36:17:b3:f1:eb:66:
                    f2:bc:57:93:9a:80:e7:7e:42:d3:16:7b:e1:ec:d2:
                    73:6d:1b:a7:01:9b:95:d9:63:b6:73:0f:9b:77:31:
                    c4:0a:76:75:6f:89:86:5f:9e:c2:18:9b:d0:8c:4b:
                    9e:7c:8a:f3:26:93:de:30:63:f5:5b:3e:54:52:b9:
                    b8:23:e2:a6:b8:9b:a6:ec:b2:ee:d8:00:8e:b4:2f:
                    3f:b2:11:2c:3a:1a:ff:7d:4a:9d:03:3c:10:66:9d:
                    a8:44:f9:6c:5e:a6:69:31:ad:c8:ac:c2:27:7e:de:
                    11:e0:7b:38:71:47:6d:27:2e:7c:f4:ee:5d:07:00:
                    14:b5:f9:16:99:b1:cb:6a:19:af:0b:30:23:32:9d:
                    6c:df:17:4e:39:6d:22:c6:ac:b3:65:1f:10:ea:c3:
                    71:a5:68:c9:e9:62:d9:cc:49:76:43:83:5f:51:d6:
                    29:a2:de:38:38:16:6c:32:69:94:5e:c9:78:45:57:
                    91:0e:51:dc:cf:96:cd:c2:74:59:32:14:a6:cf:01:
                    9e:ae:3c:ad:b2:c0:66:94:07:8e:7f:fe:02:51:46:
                    9f:49
                Exponent: 65537 (0x10001)
        X509v3 extensions:
            X509v3 Subject Key Identifier: 
                25:3C:4C:C0:E7:3B:4B:4C:AB:BC:41:C9:78:B2:49:C7:FA:78:D8:56
            X509v3 Authority Key Identifier: 
                25:3C:4C:C0:E7:3B:4B:4C:AB:BC:41:C9:78:B2:49:C7:FA:78:D8:56
            X509v3 Basic Constraints: critical
                CA:TRUE
    Signature Algorithm: sha256WithRSAEncryption
    Signature Value:
        8a:f8:46:ca:ee:7b:2e:9b:c9:31:1e:7c:2a:e1:0f:c3:49:be:
        7d:1f:10:8c:a4:a5:16:57:d6:08:0d:9a:5c:50:72:8d:82:f3:
        d5:65:63:74:7c:20:b9:67:15:75:d6:80:13:df:26:60:4c:4f:
        a6:8d:e2:9e:47:e7:f4:b7:78:fc:18:5c:72:62:01:79:64:59:
        9e:f1:98:09:6e:c0:7b:bd:6a:f1:b7:eb:d8:3d:e8:be:8f:40:
        9f:ca:9c:fc:52:a8:78:77:03:82:d6:34:9f:46:77:ca:c0:4f:
        31:1b:b7:09:c1:44:23:82:85:e2:d3:62:69:1c:f2:83:9b:e4:
        77:55:18:21:0a:60:ac:de:b7:0a:02:66:9d:d6:2e:fd:d4:73:
        29:e3:b6:26:4a:31:b7:c3:3a:9c:0b:89:74:bc:d5:f8:36:77:
        ce:57:c8:e3:c5:3b:83:93:c3:7f:52:04:6e:bc:3b:45:34:2f:
        be:90:8a:13:3b:4c:78:ee:03:7e:00:4e:6f:f8:85:ff:e7:f3:
        1a:fe:6f:20:ab:26:f5:0d:51:d3:f0:35:85:55:8e:91:06:45:
        ed:20:30:30:a3:e9:6e:25:b5:e7:1d:d0:54:30:cc:bb:55:b0:
        87:2b:d4:3b:73:c6:e9:32:9d:5f:4e:0a:73:40:a2:f3:59:a7:
        d0:ad:23:25
-----BEGIN CERTIFICATE-----
MIIEDTCCAvWgAwIBAgIUOOrEcXDXAyTPMFZZYC62vJJ7ToEwDQYJKoZIhvcNAQEL
BQAwgZUxCzAJBgNVBAYTAlVTMRYwFAYDVQQIDA1NYXNzYWNodXNldHRzMRAwDgYD
VQQHDAdCZWRmb3JkMREwDwYDVQQKDAhQZXJzb25hbDERMA8GA1UECwwIUGVyc29u
YWwxIjAgBgkqhkiG9w0BCQEWE2V4YW1wbGVAZXhhbXBsZS5jb20xEjAQBgNVBAMM
CWxvY2FsaG9zdDAeFw0yNTA0MjQxMzE4NTRaFw0zNTA0MjIxMzE4NTRaMIGVMQsw
CQYDVQQGEwJVUzEWMBQGA1UECAwNTWFzc2FjaHVzZXR0czEQMA4GA1UEBwwHQmVk
Zm9yZDERMA8GA1UECgwIUGVyc29uYWwxETAPBgNVBAsMCFBlcnNvbmFsMSIwIAYJ
KoZIhvcNAQkBFhNleGFtcGxlQGV4YW1wbGUuY29tMRIwEAYDVQQDDAlsb2NhbGhv
c3QwggEiMA0GCSqGSIb3DQEBAQUAA4IBDwAwggEKAoIBAQCYgvvScZRt5pBFBLG+
CRFkX2aw5bMJqUpGXCxdCj9lacS5H0wazjYXs/HrZvK8V5OagOd+QtMWe+Hs0nNt
G6cBm5XZY7ZzD5t3McQKdnVviYZfnsIYm9CMS558ivMmk94wY/VbPlRSubgj4qa4
m6bssu7YAI60Lz+yESw6Gv99Sp0DPBBmnahE+Wxepmkxrciswid+3hHgezhxR20n
Lnz07l0HABS1+RaZsctqGa8LMCMynWzfF045bSLGrLNlHxDqw3GlaMnpYtnMSXZD
g19R1imi3jg4FmwyaZReyXhFV5EOUdzPls3CdFkyFKbPAZ6uPK2ywGaUB45//gJR
Rp9JAgMBAAGjUzBRMB0GA1UdDgQWBBQlPEzA5ztLTKu8Qcl4sknH+njYVjAfBgNV
HSMEGDAWgBQlPEzA5ztLTKu8Qcl4sknH+njYVjAPBgNVHRMBAf8EBTADAQH/MA0G
CSqGSIb3DQEBCwUAA4IBAQCK+EbK7nsum8kxHnwq4Q/DSb59HxCMpKUWV9YIDZpc
UHKNgvPVZWN0fCC5ZxV11oAT3yZgTE+mjeKeR+f0t3j8GFxyYgF5ZFme8ZgJbsB7
vWrxt+vYPei+j0Cfypz8Uqh4dwOC1jSfRnfKwE8xG7cJwUQjgoXi02JpHPKDm+R3
VRghCmCs3rcKAmad1i791HMp47YmSjG3wzqcC4l0vNX4NnfOV8jjxTuDk8N/UgRu
vDtFNC++kIoTO0x47gN+AE5v+IX/5/Ma/m8gqyb1DVHT8DWFVY6RBkXtIDAwo+lu
JbXnHdBUMMy7VbCHK9Q7c8bpMp1fTgpzQKLzWafQrSMl
-----END CERTIFICATE-----
