Certificate Request:
    Data:
        Version: 1 (0x0)
        Subject: C=US, ST=Massachusetts, L=Bedford, O=Personal, OU=Personal, emailAddress=example@example.com, CN=localhost
        Subject Public Key Info:
            Public Key Algorithm: rsaEncryption
                Public-Key: (2048 bit)
                Modulus:
                    00:98:82:fb:d2:71:94:6d:e6:90:45:04:b1:be:09:
                    11:64:5f:66:b0:e5:b3:09:a9:4a:46:5c:2c:5d:0a:
                    3f:65:69:c4:b9:1f:4c:1a:ce:36:17:b3:f1:eb:66:
                    f2:bc:57:93:9a:80:e7:7e:42:d3:16:7b:e1:ec:d2:
                    73:6d:1b:a7:01:9b:95:d9:63:b6:73:0f:9b:77:31:
                    c4:0a:76:75:6f:89:86:5f:9e:c2:18:9b:d0:8c:4b:
                    9e:7c:8a:f3:26:93:de:30:63:f5:5b:3e:54:52:b9:
                    b8:23:e2:a6:b8:9b:a6:ec:b2:ee:d8:00:8e:b4:2f:
                    3f:b2:11:2c:3a:1a:ff:7d:4a:9d:03:3c:10:66:9d:
                    a8:44:f9:6c:5e:a6:69:31:ad:c8:ac:c2:27:7e:de:
                    11:e0:7b:38:71:47:6d:27:2e:7c:f4:ee:5d:07:00:
                    14:b5:f9:16:99:b1:cb:6a:19:af:0b:30:23:32:9d:
                    6c:df:17:4e:39:6d:22:c6:ac:b3:65:1f:10:ea:c3:
                    71:a5:68:c9:e9:62:d9:cc:49:76:43:83:5f:51:d6:
                    29:a2:de:38:38:16:6c:32:69:94:5e:c9:78:45:57:
                    91:0e:51:dc:cf:96:cd:c2:74:59:32:14:a6:cf:01:
                    9e:ae:3c:ad:b2:c0:66:94:07:8e:7f:fe:02:51:46:
                    9f:49
                Exponent: 65537 (0x10001)
        Attributes:
            (none)
            Requested Extensions:
    Signature Algorithm: sha256WithRSAEncryption
    Signature Value:
        87:98:0f:7a:8d:7b:66:47:1a:45:75:bc:eb:ac:d8:27:b9:d3:
        b7:28:c2:3c:d7:bf:d1:3f:53:81:58:93:85:46:7f:29:97:d1:
        90:9d:10:97:c1:c4:1a:9c:3c:db:1e:ba:d6:fe:54:dc:6b:a5:
        bb:e3:78:7c:4e:ba:ea:f0:31:01:81:a1:13:09:03:18:ed:8c:
        8a:4c:d5:ad:d6:0e:44:58:b8:a4:e7:58:76:03:ee:9e:ee:e5:
        ec:3d:e1:10:ce:fb:4f:1e:e7:b4:80:93:59:59:26:fe:48:aa:
        b2:b0:27:94:81:d2:04:5d:e9:d8:41:2a:6a:60:73:62:09:32:
        e8:d8:13:c5:a9:3a:1b:57:40:3b:31:77:8a:9c:0a:53:cb:27:
        99:5e:71:22:99:31:07:bc:03:13:93:ee:1f:fa:38:ce:7d:46:
        47:1b:98:ce:a2:21:ae:45:42:c4:f9:02:eb:d0:58:ac:0a:38:
        ae:2f:49:5c:3e:7a:45:f0:56:ac:3a:75:ed:fb:15:11:d0:6c:
        8e:55:00:ad:32:2a:31:70:31:52:ca:9e:cd:7c:fb:dc:2a:67:
        eb:f9:80:44:e4:62:ac:3a:85:2e:d8:e8:36:ae:91:33:44:96:
        67:dc:7c:ef:d9:a3:8c:9b:f4:6b:5e:ea:11:6d:16:29:97:75:
        f0:e8:b3:b6
-----BEGIN CERTIFICATE REQUEST-----
MIIC2zCCAcMCAQAwgZUxCzAJBgNVBAYTAlVTMRYwFAYDVQQIDA1NYXNzYWNodXNl
dHRzMRAwDgYDVQQHDAdCZWRmb3JkMREwDwYDVQQKDAhQZXJzb25hbDERMA8GA1UE
CwwIUGVyc29uYWwxIjAgBgkqhkiG9w0BCQEWE2V4YW1wbGVAZXhhbXBsZS5jb20x
EjAQBgNVBAMMCWxvY2FsaG9zdDCCASIwDQYJKoZIhvcNAQEBBQADggEPADCCAQoC
ggEBAJiC+9JxlG3mkEUEsb4JEWRfZrDlswmpSkZcLF0KP2VpxLkfTBrONhez8etm
8rxXk5qA535C0xZ74ezSc20bpwGbldljtnMPm3cxxAp2dW+Jhl+ewhib0IxLnnyK
8yaT3jBj9Vs+VFK5uCPipribpuyy7tgAjrQvP7IRLDoa/31KnQM8EGadqET5bF6m
aTGtyKzCJ37eEeB7OHFHbScufPTuXQcAFLX5Fpmxy2oZrwswIzKdbN8XTjltIsas
s2UfEOrDcaVoyeli2cxJdkODX1HWKaLeODgWbDJplF7JeEVXkQ5R3M+WzcJ0WTIU
ps8Bnq48rbLAZpQHjn/+AlFGn0kCAwEAAaAAMA0GCSqGSIb3DQEBCwUAA4IBAQCH
mA96jXtmRxpFdbzrrNgnudO3KMI817/RP1OBWJOFRn8pl9GQnRCXwcQanDzbHrrW
/lTca6W743h8Trrq8DEBgaETCQMY7YyKTNWt1g5EWLik51h2A+6e7uXsPeEQzvtP
Hue0gJNZWSb+SKqysCeUgdIEXenYQSpqYHNiCTLo2BPFqTobV0A7MXeKnApTyyeZ
XnEimTEHvAMTk+4f+jjOfUZHG5jOoiGuRULE+QLr0FisCjiuL0lcPnpF8FasOnXt
+xUR0GyOVQCtMioxcDFSyp7NfPvcKmfr+YBE5GKsOoUu2Og2rpEzRJZn3Hzv2aOM
m/RrXuoRbRYpl3Xw6LO2
-----END CERTIFICATE REQUEST-----
